target datalayout = "e-m:e-p270:32:32-p271:32:32-p272:64:64-i64:64-i128:128-f80:128-n8:16:32:64-S128"
target triple = "x86_64-pc-linux-gnu"

%struct.H5FL_reg_head_t = type { i8, i32, i32, ptr, i64, ptr }
%struct.H5T_t = type { %struct.H5O_shared_t, ptr, %struct.H5O_loc_t, %struct.H5G_name_t, ptr }
%struct.H5O_shared_t = type { i32, ptr, i32, %union.anon }
%union.anon = type { %struct.H5O_mesg_loc_t }
%struct.H5O_mesg_loc_t = type { i32, i64 }
%struct.H5O_loc_t = type { ptr, i64, i8 }
%struct.H5G_name_t = type { ptr, ptr, i32 }
%struct.H5T_shared_t = type { i64, i32, i32, i64, i32, i8, ptr, ptr, %union.anon.0 }
%union.anon.0 = type { %struct.H5T_array_t }
%struct.H5T_array_t = type { i64, i32, [32 x i64] }

@H5_H5T_t_reg_free_list = global %struct.H5FL_reg_head_t { i8 0, i32 0, i32 0, ptr @.str, i64 104, ptr null }, align 8
@H5_H5T_shared_t_reg_free_list = global %struct.H5FL_reg_head_t { i8 0, i32 0, i32 0, ptr @.str.1, i64 320, ptr null }, align 8
@.str.2 = private unnamed_addr constant [97 x i8] c"generated/home/dtcxzyw/WorkSpace/Projects/compilers/llvm-opt-benchmark/bench/hdf5/hdf5/src/H5T.c\00", align 1
@H5E_DATATYPE_g = external global i64, align 8
@H5E_CANTALLOC_g = external global i64, align 8
@H5E_CANTCLOSEOBJ_g = external global i64, align 8
@.str.220 = private unnamed_addr constant [33 x i8] c"unable to close owned VOL object\00", align 1
@__func__.H5T__initiate_copy = private unnamed_addr constant [19 x i8] c"H5T__initiate_copy\00", align 1
@.str.346 = private unnamed_addr constant [31 x i8] c"H5T_t memory allocation failed\00", align 1
@.str.347 = private unnamed_addr constant [38 x i8] c"H5T_shared_t memory allocation failed\00", align 1

; Function Attrs: nounwind uwtable
define internal ptr @H5T__initiate_copy(ptr noundef %0) #0 {
  %2 = alloca ptr, align 8
  %3 = alloca ptr, align 8
  %4 = alloca ptr, align 8
  %5 = alloca i8, align 1
  store ptr %0, ptr %2, align 8
  store ptr null, ptr %3, align 8
  store ptr null, ptr %4, align 8
  store i8 0, ptr %5, align 1
  %6 = call noalias ptr @H5FL_reg_malloc(ptr noundef @H5_H5T_t_reg_free_list)
  store ptr %6, ptr %3, align 8
  %7 = icmp eq ptr null, %6
  br i1 %7, label %8, label %23

8:                                                ; preds = %1
  br label %9

9:                                                ; preds = %8
  br label %10

10:                                               ; preds = %9
  br label %11

11:                                               ; preds = %10
  %12 = load i64, ptr @H5E_DATATYPE_g, align 8
  %13 = load i64, ptr @H5E_CANTALLOC_g, align 8
  %14 = call i32 (ptr, ptr, i32, i64, i64, ptr, ...) @H5E_printf_stack(ptr noundef @.str.2, ptr noundef @__func__.H5T__initiate_copy, i32 noundef 3499, i64 noundef %12, i64 noundef %13, ptr noundef @.str.346)
  br label %15

15:                                               ; preds = %11
  store i8 1, ptr %5, align 1
  %16 = load i8, ptr %5, align 1
  %17 = trunc i8 %16 to i1
  %18 = zext i1 %17 to i8
  store i8 %18, ptr %5, align 1
  br label %19

19:                                               ; preds = %15
  br label %20

20:                                               ; preds = %19
  store ptr null, ptr %4, align 8
  br label %67

21:                                               ; No predecessors!
  br label %22

22:                                               ; preds = %21
  br label %23

23:                                               ; preds = %22, %1
  %24 = call noalias ptr @H5FL_reg_malloc(ptr noundef @H5_H5T_shared_t_reg_free_list)
  %25 = load ptr, ptr %3, align 8
  %26 = getelementptr inbounds %struct.H5T_t, ptr %25, i32 0, i32 1
  store ptr %24, ptr %26, align 8
  %27 = icmp eq ptr null, %24
  br i1 %27, label %28, label %43

28:                                               ; preds = %23
  br label %29

29:                                               ; preds = %28
  br label %30

30:                                               ; preds = %29
  br label %31

31:                                               ; preds = %30
  %32 = load i64, ptr @H5E_DATATYPE_g, align 8
  %33 = load i64, ptr @H5E_CANTALLOC_g, align 8
  %34 = call i32 (ptr, ptr, i32, i64, i64, ptr, ...) @H5E_printf_stack(ptr noundef @.str.2, ptr noundef @__func__.H5T__initiate_copy, i32 noundef 3501, i64 noundef %32, i64 noundef %33, ptr noundef @.str.347)
  br label %35

35:                                               ; preds = %31
  store i8 1, ptr %5, align 1
  %36 = load i8, ptr %5, align 1
  %37 = trunc i8 %36 to i1
  %38 = zext i1 %37 to i8
  store i8 %38, ptr %5, align 1
  br label %39

39:                                               ; preds = %35
  br label %40

40:                                               ; preds = %39
  store ptr null, ptr %4, align 8
  br label %67

41:                                               ; No predecessors!
  br label %42

42:                                               ; preds = %41
  br label %43

43:                                               ; preds = %42, %23
  %44 = load ptr, ptr %3, align 8
  %45 = getelementptr inbounds %struct.H5T_t, ptr %44, i32 0, i32 1
  %46 = load ptr, ptr %45, align 8
  %47 = load ptr, ptr %2, align 8
  %48 = getelementptr inbounds %struct.H5T_t, ptr %47, i32 0, i32 1
  %49 = load ptr, ptr %48, align 8
  call void @llvm.memcpy.p0.p0.i64(ptr align 8 %46, ptr align 8 %49, i64 320, i1 false)
  %50 = load ptr, ptr %3, align 8
  %51 = getelementptr inbounds %struct.H5T_t, ptr %50, i32 0, i32 1
  %52 = load ptr, ptr %51, align 8
  %53 = getelementptr inbounds %struct.H5T_shared_t, ptr %52, i32 0, i32 7
  %54 = load ptr, ptr %53, align 8
  %55 = icmp ne ptr %54, null
  br i1 %55, label %56, label %63

56:                                               ; preds = %43
  %57 = load ptr, ptr %3, align 8
  %58 = getelementptr inbounds %struct.H5T_t, ptr %57, i32 0, i32 1
  %59 = load ptr, ptr %58, align 8
  %60 = getelementptr inbounds %struct.H5T_shared_t, ptr %59, i32 0, i32 7
  %61 = load ptr, ptr %60, align 8
  %62 = call i64 @H5VL_object_inc_rc(ptr noundef %61)
  br label %63

63:                                               ; preds = %56, %43
  %64 = load ptr, ptr %3, align 8
  %65 = getelementptr inbounds %struct.H5T_t, ptr %64, i32 0, i32 4
  store ptr null, ptr %65, align 8
  %66 = load ptr, ptr %3, align 8
  store ptr %66, ptr %4, align 8
  br label %67

67:                                               ; preds = %63, %40, %20
  %68 = load ptr, ptr %4, align 8
  %69 = icmp eq ptr %68, null
  br i1 %69, label %70, label %117

70:                                               ; preds = %67
  %71 = load ptr, ptr %3, align 8
  %72 = icmp ne ptr %71, null
  br i1 %72, label %73, label %116

73:                                               ; preds = %70
  %74 = load ptr, ptr %3, align 8
  %75 = getelementptr inbounds %struct.H5T_t, ptr %74, i32 0, i32 1
  %76 = load ptr, ptr %75, align 8
  %77 = icmp ne ptr %76, null
  br i1 %77, label %78, label %113

78:                                               ; preds = %73
  %79 = load ptr, ptr %3, align 8
  %80 = getelementptr inbounds %struct.H5T_t, ptr %79, i32 0, i32 1
  %81 = load ptr, ptr %80, align 8
  %82 = getelementptr inbounds %struct.H5T_shared_t, ptr %81, i32 0, i32 7
  %83 = load ptr, ptr %82, align 8
  %84 = icmp ne ptr %83, null
  br i1 %84, label %85, label %106

85:                                               ; preds = %78
  %86 = load ptr, ptr %3, align 8
  %87 = getelementptr inbounds %struct.H5T_t, ptr %86, i32 0, i32 1
  %88 = load ptr, ptr %87, align 8
  %89 = getelementptr inbounds %struct.H5T_shared_t, ptr %88, i32 0, i32 7
  %90 = load ptr, ptr %89, align 8
  %91 = call i32 @H5VL_free_object(ptr noundef %90)
  %92 = icmp slt i32 %91, 0
  br i1 %92, label %93, label %106

93:                                               ; preds = %85
  br label %94

94:                                               ; preds = %93
  br label %95

95:                                               ; preds = %94
  br label %96

96:                                               ; preds = %95
  %97 = load i64, ptr @H5E_DATATYPE_g, align 8
  %98 = load i64, ptr @H5E_CANTCLOSEOBJ_g, align 8
  %99 = call i32 (ptr, ptr, i32, i64, i64, ptr, ...) @H5E_printf_stack(ptr noundef @.str.2, ptr noundef @__func__.H5T__initiate_copy, i32 noundef 3521, i64 noundef %97, i64 noundef %98, ptr noundef @.str.220)
  br label %100

100:                                              ; preds = %96
  store i8 1, ptr %5, align 1
  %101 = load i8, ptr %5, align 1
  %102 = trunc i8 %101 to i1
  %103 = zext i1 %102 to i8
  store i8 %103, ptr %5, align 1
  br label %104

104:                                              ; preds = %100
  store ptr null, ptr %4, align 8
  br label %105

105:                                              ; preds = %104
  br label %106

106:                                              ; preds = %105, %85, %78
  %107 = load ptr, ptr %3, align 8
  %108 = getelementptr inbounds %struct.H5T_t, ptr %107, i32 0, i32 1
  %109 = load ptr, ptr %108, align 8
  %110 = call ptr @H5FL_reg_free(ptr noundef @H5_H5T_shared_t_reg_free_list, ptr noundef %109)
  %111 = load ptr, ptr %3, align 8
  %112 = getelementptr inbounds %struct.H5T_t, ptr %111, i32 0, i32 1
  store ptr %110, ptr %112, align 8
  br label %113

113:                                              ; preds = %106, %73
  %114 = load ptr, ptr %3, align 8
  %115 = call ptr @H5FL_reg_free(ptr noundef @H5_H5T_t_reg_free_list, ptr noundef %114)
  store ptr %115, ptr %3, align 8
  br label %116

116:                                              ; preds = %113, %70
  br label %117

117:                                              ; preds = %116, %67
  %118 = load ptr, ptr %4, align 8
  ret ptr %118
}