; Function Attrs: nounwind uwtable
define internal fastcc ptr @H5T__initiate_copy(ptr nocapture noundef readonly %0) unnamed_addr #0 {
  %2 = tail call noalias ptr @H5FL_reg_malloc(ptr noundef nonnull @H5_H5T_t_reg_free_list) #17
  %3 = icmp eq ptr %2, null
  br i1 %3, label %4, label %8

4:                                                ; preds = %1
  %5 = load i64, ptr @H5E_DATATYPE_g, align 8
  %6 = load i64, ptr @H5E_CANTALLOC_g, align 8
  %7 = tail call i32 (ptr, ptr, i32, i64, i64, ptr, ...) @H5E_printf_stack(ptr noundef nonnull @.str.2, ptr noundef nonnull @__func__.H5T__initiate_copy, i32 noundef 3499, i64 noundef %5, i64 noundef %6, ptr noundef nonnull @.str.346) #17
  br label %.thread

8:                                                ; preds = %1
  %9 = tail call noalias ptr @H5FL_reg_malloc(ptr noundef nonnull @H5_H5T_shared_t_reg_free_list) #17
  %10 = getelementptr inbounds i8, ptr %2, i64 40
  store ptr %9, ptr %10, align 8
  %11 = icmp eq ptr %9, null
  br i1 %11, label %21, label %12

12:                                               ; preds = %8
  %13 = getelementptr inbounds i8, ptr %0, i64 40
  %14 = load ptr, ptr %13, align 8
  tail call void @llvm.memcpy.p0.p0.i64(ptr noundef nonnull align 8 dereferenceable(320) %9, ptr noundef nonnull align 8 dereferenceable(320) %14, i64 320, i1 false)
  %15 = getelementptr inbounds i8, ptr %9, i64 40
  %16 = load ptr, ptr %15, align 8
  %.not = icmp eq ptr %16, null
  br i1 %.not, label %19, label %17

17:                                               ; preds = %12
  %18 = tail call i64 @H5VL_object_inc_rc(ptr noundef nonnull %16) #17
  br label %19

19:                                               ; preds = %17, %12
  %20 = getelementptr inbounds i8, ptr %2, i64 96
  store ptr null, ptr %20, align 8
  br label %.thread

21:                                               ; preds = %8
  %22 = load i64, ptr @H5E_DATATYPE_g, align 8
  %23 = load i64, ptr @H5E_CANTALLOC_g, align 8
  %24 = tail call i32 (ptr, ptr, i32, i64, i64, ptr, ...) @H5E_printf_stack(ptr noundef nonnull @.str.2, ptr noundef nonnull @__func__.H5T__initiate_copy, i32 noundef 3501, i64 noundef %22, i64 noundef %23, ptr noundef nonnull @.str.347) #17
  %25 = tail call ptr @H5FL_reg_free(ptr noundef nonnull @H5_H5T_t_reg_free_list, ptr noundef nonnull %2) #17
  br label %.thread

.thread:                                          ; preds = %4, %19, %21
  %.3 = phi ptr [ null, %21 ], [ %2, %19 ], [ null, %4 ]
  ret ptr %.3
}